target datalayout = "e-m:e-p270:32:32-p271:32:32-p272:64:64-i64:64-i128:128-f80:128-n8:16:32:64-S128"
target triple = "x86_64-pc-linux-gnu"

%struct.ChanDelay = type { i64, i64, i64, i32, ptr }

; Function Attrs: nounwind uwtable
define internal i32 @resize_samples_dblp(ptr noundef %0, i64 noundef %1) #1 {
  %3 = alloca i32, align 4
  %4 = alloca ptr, align 8
  %5 = alloca i64, align 8
  %6 = alloca ptr, align 8
  %7 = alloca i32, align 4
  %8 = alloca i64, align 8
  store ptr %0, ptr %4, align 8, !tbaa !46
  store i64 %1, ptr %5, align 8, !tbaa !37
  call void @llvm.lifetime.start.p0(i64 8, ptr %6) #9
  %9 = load i64, ptr %5, align 8, !tbaa !37
  %10 = load ptr, ptr %4, align 8, !tbaa !46
  %11 = getelementptr inbounds nuw %struct.ChanDelay, ptr %10, i32 0, i32 0
  %12 = load i64, ptr %11, align 8, !tbaa !48
  %13 = icmp eq i64 %9, %12
  br i1 %13, label %14, label %15

14:                                               ; preds = %2
  store i32 0, ptr %3, align 4
  store i32 1, ptr %7, align 4
  br label %179

15:                                               ; preds = %2
  %16 = load i64, ptr %5, align 8, !tbaa !37
  %17 = icmp eq i64 %16, 0
  br i1 %17, label %18, label %29

18:                                               ; preds = %15
  %19 = load ptr, ptr %4, align 8, !tbaa !46
  %20 = getelementptr inbounds nuw %struct.ChanDelay, ptr %19, i32 0, i32 4
  call void @av_freep(ptr noundef %20)
  %21 = load ptr, ptr %4, align 8, !tbaa !46
  %22 = getelementptr inbounds nuw %struct.ChanDelay, ptr %21, i32 0, i32 3
  store i32 0, ptr %22, align 8, !tbaa !81
  %23 = load ptr, ptr %4, align 8, !tbaa !46
  %24 = getelementptr inbounds nuw %struct.ChanDelay, ptr %23, i32 0, i32 0
  store i64 0, ptr %24, align 8, !tbaa !48
  %25 = load ptr, ptr %4, align 8, !tbaa !46
  %26 = getelementptr inbounds nuw %struct.ChanDelay, ptr %25, i32 0, i32 2
  store i64 0, ptr %26, align 8, !tbaa !91
  %27 = load ptr, ptr %4, align 8, !tbaa !46
  %28 = getelementptr inbounds nuw %struct.ChanDelay, ptr %27, i32 0, i32 1
  store i64 0, ptr %28, align 8, !tbaa !90
  store i32 0, ptr %3, align 4
  store i32 1, ptr %7, align 4
  br label %179

29:                                               ; preds = %15
  %30 = load ptr, ptr %4, align 8, !tbaa !46
  %31 = getelementptr inbounds nuw %struct.ChanDelay, ptr %30, i32 0, i32 4
  %32 = load ptr, ptr %31, align 8, !tbaa !80
  %33 = load ptr, ptr %4, align 8, !tbaa !46
  %34 = getelementptr inbounds nuw %struct.ChanDelay, ptr %33, i32 0, i32 3
  %35 = load i64, ptr %5, align 8, !tbaa !37
  %36 = mul i64 %35, 8
  %37 = call ptr @av_fast_realloc(ptr noundef %32, ptr noundef %34, i64 noundef %36)
  store ptr %37, ptr %6, align 8, !tbaa !104
  %38 = load ptr, ptr %6, align 8, !tbaa !104
  %39 = icmp ne ptr %38, null
  br i1 %39, label %41, label %40

40:                                               ; preds = %29
  store i32 -12, ptr %3, align 4
  store i32 1, ptr %7, align 4
  br label %179

41:                                               ; preds = %29
  %42 = load i64, ptr %5, align 8, !tbaa !37
  %43 = load ptr, ptr %4, align 8, !tbaa !46
  %44 = getelementptr inbounds nuw %struct.ChanDelay, ptr %43, i32 0, i32 0
  %45 = load i64, ptr %44, align 8, !tbaa !48
  %46 = icmp slt i64 %42, %45
  br i1 %46, label %47, label %112

47:                                               ; preds = %41
  %48 = load ptr, ptr %4, align 8, !tbaa !46
  %49 = getelementptr inbounds nuw %struct.ChanDelay, ptr %48, i32 0, i32 2
  %50 = load i64, ptr %49, align 8, !tbaa !91
  %51 = load i64, ptr %5, align 8, !tbaa !37
  %52 = icmp ugt i64 %50, %51
  br i1 %52, label %53, label %70

53:                                               ; preds = %47
  %54 = load i64, ptr %5, align 8, !tbaa !37
  %55 = load ptr, ptr %4, align 8, !tbaa !46
  %56 = getelementptr inbounds nuw %struct.ChanDelay, ptr %55, i32 0, i32 2
  %57 = load i64, ptr %56, align 8, !tbaa !91
  %58 = sub i64 %57, %54
  store i64 %58, ptr %56, align 8, !tbaa !91
  %59 = load ptr, ptr %6, align 8, !tbaa !104
  %60 = load ptr, ptr %6, align 8, !tbaa !104
  %61 = load i64, ptr %5, align 8, !tbaa !37
  %62 = getelementptr inbounds double, ptr %60, i64 %61
  %63 = load ptr, ptr %4, align 8, !tbaa !46
  %64 = getelementptr inbounds nuw %struct.ChanDelay, ptr %63, i32 0, i32 2
  %65 = load i64, ptr %64, align 8, !tbaa !91
  %66 = mul i64 %65, 8
  call void @llvm.memmove.p0.p0.i64(ptr align 8 %59, ptr align 8 %62, i64 %66, i1 false)
  %67 = load i64, ptr %5, align 8, !tbaa !37
  %68 = load ptr, ptr %4, align 8, !tbaa !46
  %69 = getelementptr inbounds nuw %struct.ChanDelay, ptr %68, i32 0, i32 1
  store i64 %67, ptr %69, align 8, !tbaa !90
  br label %111

70:                                               ; preds = %47
  %71 = load ptr, ptr %4, align 8, !tbaa !46
  %72 = getelementptr inbounds nuw %struct.ChanDelay, ptr %71, i32 0, i32 1
  %73 = load i64, ptr %72, align 8, !tbaa !90
  %74 = load ptr, ptr %4, align 8, !tbaa !46
  %75 = getelementptr inbounds nuw %struct.ChanDelay, ptr %74, i32 0, i32 2
  %76 = load i64, ptr %75, align 8, !tbaa !91
  %77 = icmp ugt i64 %73, %76
  br i1 %77, label %78, label %110

78:                                               ; preds = %70
  %79 = load ptr, ptr %6, align 8, !tbaa !104
  %80 = load ptr, ptr %4, align 8, !tbaa !46
  %81 = getelementptr inbounds nuw %struct.ChanDelay, ptr %80, i32 0, i32 2
  %82 = load i64, ptr %81, align 8, !tbaa !91
  %83 = getelementptr inbounds nuw double, ptr %79, i64 %82
  %84 = load ptr, ptr %6, align 8, !tbaa !104
  %85 = load ptr, ptr %4, align 8, !tbaa !46
  %86 = getelementptr inbounds nuw %struct.ChanDelay, ptr %85, i32 0, i32 2
  %87 = load i64, ptr %86, align 8, !tbaa !91
  %88 = load ptr, ptr %4, align 8, !tbaa !46
  %89 = getelementptr inbounds nuw %struct.ChanDelay, ptr %88, i32 0, i32 0
  %90 = load i64, ptr %89, align 8, !tbaa !48
  %91 = load i64, ptr %5, align 8, !tbaa !37
  %92 = sub nsw i64 %90, %91
  %93 = add i64 %87, %92
  %94 = getelementptr inbounds nuw double, ptr %84, i64 %93
  %95 = load i64, ptr %5, align 8, !tbaa !37
  %96 = load ptr, ptr %4, align 8, !tbaa !46
  %97 = getelementptr inbounds nuw %struct.ChanDelay, ptr %96, i32 0, i32 2
  %98 = load i64, ptr %97, align 8, !tbaa !91
  %99 = sub i64 %95, %98
  %100 = mul i64 %99, 8
  call void @llvm.memmove.p0.p0.i64(ptr align 8 %83, ptr align 8 %94, i64 %100, i1 false)
  %101 = load ptr, ptr %4, align 8, !tbaa !46
  %102 = getelementptr inbounds nuw %struct.ChanDelay, ptr %101, i32 0, i32 0
  %103 = load i64, ptr %102, align 8, !tbaa !48
  %104 = load i64, ptr %5, align 8, !tbaa !37
  %105 = sub nsw i64 %103, %104
  %106 = load ptr, ptr %4, align 8, !tbaa !46
  %107 = getelementptr inbounds nuw %struct.ChanDelay, ptr %106, i32 0, i32 1
  %108 = load i64, ptr %107, align 8, !tbaa !90
  %109 = sub i64 %108, %105
  store i64 %109, ptr %107, align 8, !tbaa !90
  br label %110

110:                                              ; preds = %78, %70
  br label %111

111:                                              ; preds = %110, %53
  br label %172

112:                                              ; preds = %41
  call void @llvm.lifetime.start.p0(i64 8, ptr %8) #9
  %113 = load ptr, ptr %4, align 8, !tbaa !46
  %114 = getelementptr inbounds nuw %struct.ChanDelay, ptr %113, i32 0, i32 1
  %115 = load i64, ptr %114, align 8, !tbaa !90
  %116 = load ptr, ptr %4, align 8, !tbaa !46
  %117 = getelementptr inbounds nuw %struct.ChanDelay, ptr %116, i32 0, i32 0
  %118 = load i64, ptr %117, align 8, !tbaa !48
  %119 = icmp uge i64 %115, %118
  br i1 %119, label %120, label %149

120:                                              ; preds = %112
  %121 = load ptr, ptr %4, align 8, !tbaa !46
  %122 = getelementptr inbounds nuw %struct.ChanDelay, ptr %121, i32 0, i32 0
  %123 = load i64, ptr %122, align 8, !tbaa !48
  %124 = load ptr, ptr %4, align 8, !tbaa !46
  %125 = getelementptr inbounds nuw %struct.ChanDelay, ptr %124, i32 0, i32 2
  %126 = load i64, ptr %125, align 8, !tbaa !91
  %127 = sub i64 %123, %126
  %128 = mul i64 %127, 8
  store i64 %128, ptr %8, align 8, !tbaa !37
  %129 = load ptr, ptr %6, align 8, !tbaa !104
  %130 = load ptr, ptr %4, align 8, !tbaa !46
  %131 = getelementptr inbounds nuw %struct.ChanDelay, ptr %130, i32 0, i32 2
  %132 = load i64, ptr %131, align 8, !tbaa !91
  %133 = load i64, ptr %5, align 8, !tbaa !37
  %134 = load ptr, ptr %4, align 8, !tbaa !46
  %135 = getelementptr inbounds nuw %struct.ChanDelay, ptr %134, i32 0, i32 0
  %136 = load i64, ptr %135, align 8, !tbaa !48
  %137 = sub nsw i64 %133, %136
  %138 = add i64 %132, %137
  %139 = getelementptr inbounds nuw double, ptr %129, i64 %138
  %140 = load ptr, ptr %6, align 8, !tbaa !104
  %141 = load ptr, ptr %4, align 8, !tbaa !46
  %142 = getelementptr inbounds nuw %struct.ChanDelay, ptr %141, i32 0, i32 2
  %143 = load i64, ptr %142, align 8, !tbaa !91
  %144 = getelementptr inbounds nuw double, ptr %140, i64 %143
  %145 = load i64, ptr %8, align 8, !tbaa !37
  call void @llvm.memmove.p0.p0.i64(ptr align 8 %139, ptr align 8 %144, i64 %145, i1 false)
  %146 = load i64, ptr %5, align 8, !tbaa !37
  %147 = load ptr, ptr %4, align 8, !tbaa !46
  %148 = getelementptr inbounds nuw %struct.ChanDelay, ptr %147, i32 0, i32 1
  store i64 %146, ptr %148, align 8, !tbaa !90
  br label %159

149:                                              ; preds = %112
  %150 = load i64, ptr %5, align 8, !tbaa !37
  %151 = load ptr, ptr %4, align 8, !tbaa !46
  %152 = getelementptr inbounds nuw %struct.ChanDelay, ptr %151, i32 0, i32 0
  %153 = load i64, ptr %152, align 8, !tbaa !48
  %154 = sub nsw i64 %150, %153
  %155 = load ptr, ptr %4, align 8, !tbaa !46
  %156 = getelementptr inbounds nuw %struct.ChanDelay, ptr %155, i32 0, i32 1
  %157 = load i64, ptr %156, align 8, !tbaa !90
  %158 = add i64 %157, %154
  store i64 %158, ptr %156, align 8, !tbaa !90
  br label %159

159:                                              ; preds = %149, %120
  %160 = load i64, ptr %5, align 8, !tbaa !37
  %161 = load ptr, ptr %4, align 8, !tbaa !46
  %162 = getelementptr inbounds nuw %struct.ChanDelay, ptr %161, i32 0, i32 0
  %163 = load i64, ptr %162, align 8, !tbaa !48
  %164 = sub nsw i64 %160, %163
  %165 = mul i64 %164, 8
  store i64 %165, ptr %8, align 8, !tbaa !37
  %166 = load ptr, ptr %6, align 8, !tbaa !104
  %167 = load ptr, ptr %4, align 8, !tbaa !46
  %168 = getelementptr inbounds nuw %struct.ChanDelay, ptr %167, i32 0, i32 2
  %169 = load i64, ptr %168, align 8, !tbaa !91
  %170 = getelementptr inbounds nuw double, ptr %166, i64 %169
  %171 = load i64, ptr %8, align 8, !tbaa !37
  call void @llvm.memset.p0.i64(ptr align 8 %170, i8 0, i64 %171, i1 false)
  call void @llvm.lifetime.end.p0(i64 8, ptr %8) #9
  br label %172

172:                                              ; preds = %159, %111
  %173 = load i64, ptr %5, align 8, !tbaa !37
  %174 = load ptr, ptr %4, align 8, !tbaa !46
  %175 = getelementptr inbounds nuw %struct.ChanDelay, ptr %174, i32 0, i32 0
  store i64 %173, ptr %175, align 8, !tbaa !48
  %176 = load ptr, ptr %6, align 8, !tbaa !104
  %177 = load ptr, ptr %4, align 8, !tbaa !46
  %178 = getelementptr inbounds nuw %struct.ChanDelay, ptr %177, i32 0, i32 4
  store ptr %176, ptr %178, align 8, !tbaa !80
  store i32 0, ptr %3, align 4
  store i32 1, ptr %7, align 4
  br label %179

179:                                              ; preds = %172, %40, %18, %14
  call void @llvm.lifetime.end.p0(i64 8, ptr %6) #9
  %180 = load i32, ptr %3, align 4
  ret i32 %180
}